; Function Attrs: mustprogress uwtable
define hidden noundef zeroext i1 @_ZNK15fpa_decl_plugin15is_unique_valueEP3app(ptr nocapture noundef nonnull readonly align 8 dereferenceable(1008) %this, ptr nocapture noundef readonly %e) unnamed_addr #3 align 2 {
entry:
  %bu = alloca %class.bv_util, align 8
  %m_decl.i.i = getelementptr inbounds i8, ptr %e, i64 16
  %0 = load ptr, ptr %m_decl.i.i, align 8
  %m_info.i.i = getelementptr inbounds i8, ptr %0, i64 24
  %1 = load ptr, ptr %m_info.i.i, align 8
  %cmp.i.i = icmp eq ptr %1, null
  br i1 %cmp.i.i, label %_ZNK3app13get_family_idEv.exit, label %_ZNK3app13get_family_idEv.exit.thread

_ZNK3app13get_family_idEv.exit:                   ; preds = %entry
  %m_family_id = getelementptr inbounds i8, ptr %this, i64 16
  %2 = load i32, ptr %m_family_id, align 8
  %cmp.not = icmp eq i32 %2, -1
  br i1 %cmp.not, label %sw.default, label %return

_ZNK3app13get_family_idEv.exit.thread:            ; preds = %entry
  %3 = load i32, ptr %1, align 8
  %m_family_id20 = getelementptr inbounds i8, ptr %this, i64 16
  %4 = load i32, ptr %m_family_id20, align 8
  %cmp.not21 = icmp eq i32 %3, %4
  br i1 %cmp.not21, label %_ZNK3app13get_decl_kindEv.exit, label %return

_ZNK3app13get_decl_kindEv.exit:                   ; preds = %_ZNK3app13get_family_idEv.exit.thread
  %m_kind.i.i.i = getelementptr inbounds i8, ptr %1, i64 4
  %5 = load i32, ptr %m_kind.i.i.i, align 4
  switch i32 %5, label %sw.default [
    i32 0, label %return
    i32 1, label %return
    i32 2, label %return
    i32 3, label %return
    i32 4, label %return
    i32 6, label %sw.bb3
    i32 7, label %sw.bb3
    i32 9, label %sw.bb3
    i32 10, label %sw.bb3
    i32 8, label %sw.bb3
    i32 5, label %sw.bb3
    i32 37, label %sw.bb4
  ]

sw.bb3:                                           ; preds = %_ZNK3app13get_decl_kindEv.exit, %_ZNK3app13get_decl_kindEv.exit, %_ZNK3app13get_decl_kindEv.exit, %_ZNK3app13get_decl_kindEv.exit, %_ZNK3app13get_decl_kindEv.exit, %_ZNK3app13get_decl_kindEv.exit
  br label %return

sw.bb4:                                           ; preds = %_ZNK3app13get_decl_kindEv.exit
  %m_manager = getelementptr inbounds i8, ptr %this, i64 8
  %6 = load ptr, ptr %m_manager, align 8
  %m_args.i = getelementptr inbounds i8, ptr %e, i64 32
  %7 = load ptr, ptr %m_args.i, align 8
  %call6 = tail call noundef zeroext i1 @_ZNK11ast_manager8is_valueEP4expr(ptr noundef nonnull align 8 dereferenceable(976) %6, ptr noundef %7)
  br i1 %call6, label %land.lhs.true, label %return

land.lhs.true:                                    ; preds = %sw.bb4
  %8 = load ptr, ptr %m_manager, align 8
  %arrayidx.i = getelementptr inbounds i8, ptr %e, i64 40
  %9 = load ptr, ptr %arrayidx.i, align 8
  %call9 = tail call noundef zeroext i1 @_ZNK11ast_manager8is_valueEP4expr(ptr noundef nonnull align 8 dereferenceable(976) %8, ptr noundef %9)
  br i1 %call9, label %land.lhs.true10, label %return

land.lhs.true10:                                  ; preds = %land.lhs.true
  %10 = load ptr, ptr %m_manager, align 8
  %arrayidx.i14 = getelementptr inbounds i8, ptr %e, i64 48
  %11 = load ptr, ptr %arrayidx.i14, align 8
  %call13 = tail call noundef zeroext i1 @_ZNK11ast_manager8is_valueEP4expr(ptr noundef nonnull align 8 dereferenceable(976) %10, ptr noundef %11)
  br i1 %call13, label %if.then14, label %return

if.then14:                                        ; preds = %land.lhs.true10
  %12 = load ptr, ptr %m_manager, align 8
  call void @_ZN7bv_utilC1ER11ast_manager(ptr noundef nonnull align 8 dereferenceable(24) %bu, ptr noundef nonnull align 8 dereferenceable(976) %12)
  %13 = load ptr, ptr %arrayidx.i, align 8
  %call17 = call noundef zeroext i1 @_ZNK14bv_recognizers9is_alloneEPK4expr(ptr noundef nonnull align 4 dereferenceable(4) %bu, ptr noundef %13)
  br i1 %call17, label %return, label %land.rhs

land.rhs:                                         ; preds = %if.then14
  %14 = load ptr, ptr %arrayidx.i, align 8
  %call19 = call noundef zeroext i1 @_ZNK14bv_recognizers7is_zeroEPK4expr(ptr noundef nonnull align 4 dereferenceable(4) %bu, ptr noundef %14)
  %lnot = xor i1 %call19, true
  br label %return

sw.default:                                       ; preds = %_ZNK3app13get_family_idEv.exit, %_ZNK3app13get_decl_kindEv.exit
  br label %return

return:                                           ; preds = %_ZNK3app13get_family_idEv.exit.thread, %sw.bb4, %land.lhs.true, %land.lhs.true10, %if.then14, %land.rhs, %_ZNK3app13get_decl_kindEv.exit, %_ZNK3app13get_decl_kindEv.exit, %_ZNK3app13get_decl_kindEv.exit, %_ZNK3app13get_decl_kindEv.exit, %_ZNK3app13get_decl_kindEv.exit, %_ZNK3app13get_family_idEv.exit, %sw.default, %sw.bb3
  %retval.0 = phi i1 [ false, %sw.default ], [ false, %sw.bb3 ], [ false, %_ZNK3app13get_family_idEv.exit ], [ true, %_ZNK3app13get_decl_kindEv.exit ], [ true, %_ZNK3app13get_decl_kindEv.exit ], [ true, %_ZNK3app13get_decl_kindEv.exit ], [ true, %_ZNK3app13get_decl_kindEv.exit ], [ true, %_ZNK3app13get_decl_kindEv.exit ], [ false, %if.then14 ], [ %lnot, %land.rhs ], [ false, %land.lhs.true10 ], [ false, %land.lhs.true ], [ false, %sw.bb4 ], [ false, %_ZNK3app13get_family_idEv.exit.thread ]
  ret i1 %retval.0
}